target datalayout = "e-m:e-p270:32:32-p271:32:32-p272:64:64-i64:64-i128:128-f80:128-n8:16:32:64-S128"
target triple = "x86_64-pc-linux-gnu"

%"class.std::__cxx11::basic_string" = type { %"struct.std::__cxx11::basic_string<char>::_Alloc_hider", i64, %union.anon }
%"struct.std::__cxx11::basic_string<char>::_Alloc_hider" = type { ptr }
%union.anon = type { i64, [8 x i8] }
%"class.(anonymous namespace)::JBT" = type <{ %"class.std::__cxx11::basic_string", %"class.(anonymous namespace)::JBTIndex", [4 x i8] }>
%"class.(anonymous namespace)::JBTIndex" = type { i32 }
%"class.__gnu_cxx::__normal_iterator.1057" = type { ptr }
%"struct.__gnu_cxx::__ops::_Iter_comp_iter.1161" = type { ptr }

; Function Attrs: mustprogress nounwind uwtable
define internal void @_ZN9__gnu_cxx17__normal_iteratorIPN12_GLOBAL__N_13JBTINSt7__cxx1112basic_stringIcSt11char_traitsIcESaIcEEEEESt6vectorIS9_SaIS9_EEEC2ERKSA_(ptr noundef nonnull align 8 dereferenceable(8) %0, ptr noundef nonnull align 8 dereferenceable(8) %1) unnamed_addr #6 align 2 {
  %3 = alloca ptr, align 8
  %4 = alloca ptr, align 8
  store ptr %0, ptr %3, align 8, !tbaa !1424
  store ptr %1, ptr %4, align 8, !tbaa !1426
  %5 = load ptr, ptr %3, align 8
  %6 = getelementptr inbounds nuw %"class.__gnu_cxx::__normal_iterator.1057", ptr %5, i32 0, i32 0
  %7 = load ptr, ptr %4, align 8, !tbaa !1426
  %8 = load ptr, ptr %7, align 8, !tbaa !992
  store ptr %8, ptr %6, align 8, !tbaa !1428
  ret void
}

; Function Attrs: mustprogress nounwind uwtable
define internal noundef nonnull align 8 dereferenceable(8) ptr @_ZNK9__gnu_cxx17__normal_iteratorIPN12_GLOBAL__N_13JBTINSt7__cxx1112basic_stringIcSt11char_traitsIcESaIcEEEEESt6vectorIS9_SaIS9_EEE4baseEv(ptr noundef nonnull align 8 dereferenceable(8) %0) #6 align 2 {
  %2 = alloca ptr, align 8
  store ptr %0, ptr %2, align 8, !tbaa !1424
  %3 = load ptr, ptr %2, align 8
  %4 = getelementptr inbounds nuw %"class.__gnu_cxx::__normal_iterator.1057", ptr %3, i32 0, i32 0
  ret ptr %4
}

; Function Attrs: mustprogress nounwind uwtable
define internal ptr @_ZNK9__gnu_cxx17__normal_iteratorIPN12_GLOBAL__N_13JBTINSt7__cxx1112basic_stringIcSt11char_traitsIcESaIcEEEEESt6vectorIS9_SaIS9_EEEplEl(ptr noundef nonnull align 8 dereferenceable(8) %0, i64 noundef %1) #6 align 2 {
  %3 = alloca %"class.__gnu_cxx::__normal_iterator.1057", align 8
  %4 = alloca ptr, align 8
  %5 = alloca i64, align 8
  %6 = alloca ptr, align 8
  store ptr %0, ptr %4, align 8, !tbaa !1424
  store i64 %1, ptr %5, align 8, !tbaa !17
  %7 = load ptr, ptr %4, align 8
  call void @llvm.lifetime.start.p0(i64 8, ptr %6) #3
  %8 = getelementptr inbounds nuw %"class.__gnu_cxx::__normal_iterator.1057", ptr %7, i32 0, i32 0
  %9 = load ptr, ptr %8, align 8, !tbaa !1428
  %10 = load i64, ptr %5, align 8, !tbaa !17
  %11 = getelementptr inbounds %"class.(anonymous namespace)::JBT", ptr %9, i64 %10
  store ptr %11, ptr %6, align 8, !tbaa !992
  call void @_ZN9__gnu_cxx17__normal_iteratorIPN12_GLOBAL__N_13JBTINSt7__cxx1112basic_stringIcSt11char_traitsIcESaIcEEEEESt6vectorIS9_SaIS9_EEEC2ERKSA_(ptr noundef nonnull align 8 dereferenceable(8) %3, ptr noundef nonnull align 8 dereferenceable(8) %6) #3
  call void @llvm.lifetime.end.p0(i64 8, ptr %6) #3
  %12 = getelementptr inbounds nuw %"class.__gnu_cxx::__normal_iterator.1057", ptr %3, i32 0, i32 0
  %13 = load ptr, ptr %12, align 8
  ret ptr %13
}

; Function Attrs: inlinehint mustprogress nounwind uwtable
define internal noundef i64 @_ZN9__gnu_cxxmiIPN12_GLOBAL__N_13JBTINSt7__cxx1112basic_stringIcSt11char_traitsIcESaIcEEEEESt6vectorIS9_SaIS9_EEEENS_17__normal_iteratorIT_T0_E15difference_typeERKSH_SK_(ptr noundef nonnull align 8 dereferenceable(8) %0, ptr noundef nonnull align 8 dereferenceable(8) %1) #7 {
  %3 = alloca ptr, align 8
  %4 = alloca ptr, align 8
  store ptr %0, ptr %3, align 8, !tbaa !1424
  store ptr %1, ptr %4, align 8, !tbaa !1424
  %5 = load ptr, ptr %3, align 8, !tbaa !1424
  %6 = call noundef nonnull align 8 dereferenceable(8) ptr @_ZNK9__gnu_cxx17__normal_iteratorIPN12_GLOBAL__N_13JBTINSt7__cxx1112basic_stringIcSt11char_traitsIcESaIcEEEEESt6vectorIS9_SaIS9_EEE4baseEv(ptr noundef nonnull align 8 dereferenceable(8) %5) #3
  %7 = load ptr, ptr %6, align 8, !tbaa !992
  %8 = load ptr, ptr %4, align 8, !tbaa !1424
  %9 = call noundef nonnull align 8 dereferenceable(8) ptr @_ZNK9__gnu_cxx17__normal_iteratorIPN12_GLOBAL__N_13JBTINSt7__cxx1112basic_stringIcSt11char_traitsIcESaIcEEEEESt6vectorIS9_SaIS9_EEE4baseEv(ptr noundef nonnull align 8 dereferenceable(8) %8) #3
  %10 = load ptr, ptr %9, align 8, !tbaa !992
  %11 = ptrtoint ptr %7 to i64
  %12 = ptrtoint ptr %10 to i64
  %13 = sub i64 %11, %12
  %14 = sdiv exact i64 %13, 40
  ret i64 %14
}

; Function Attrs: mustprogress uwtable
define internal void @_ZSt21__inplace_stable_sortIN9__gnu_cxx17__normal_iteratorIPN12_GLOBAL__N_13JBTINSt7__cxx1112basic_stringIcSt11char_traitsIcESaIcEEEEESt6vectorISA_SaISA_EEEENS0_5__ops15_Iter_comp_iterIPFbRKSA_SJ_EEEEvT_SN_T0_(ptr %0, ptr %1, ptr %2) #5 {
  %4 = alloca %"class.__gnu_cxx::__normal_iterator.1057", align 8
  %5 = alloca %"class.__gnu_cxx::__normal_iterator.1057", align 8
  %6 = alloca %"struct.__gnu_cxx::__ops::_Iter_comp_iter.1161", align 8
  %7 = alloca %"class.__gnu_cxx::__normal_iterator.1057", align 8
  %8 = alloca %"class.__gnu_cxx::__normal_iterator.1057", align 8
  %9 = alloca %"struct.__gnu_cxx::__ops::_Iter_comp_iter.1161", align 8
  %10 = alloca %"class.__gnu_cxx::__normal_iterator.1057", align 8
  %11 = alloca %"class.__gnu_cxx::__normal_iterator.1057", align 8
  %12 = alloca %"class.__gnu_cxx::__normal_iterator.1057", align 8
  %13 = alloca %"struct.__gnu_cxx::__ops::_Iter_comp_iter.1161", align 8
  %14 = alloca %"class.__gnu_cxx::__normal_iterator.1057", align 8
  %15 = alloca %"class.__gnu_cxx::__normal_iterator.1057", align 8
  %16 = alloca %"struct.__gnu_cxx::__ops::_Iter_comp_iter.1161", align 8
  %17 = alloca %"class.__gnu_cxx::__normal_iterator.1057", align 8
  %18 = alloca %"class.__gnu_cxx::__normal_iterator.1057", align 8
  %19 = alloca %"class.__gnu_cxx::__normal_iterator.1057", align 8
  %20 = alloca %"struct.__gnu_cxx::__ops::_Iter_comp_iter.1161", align 8
  %21 = getelementptr inbounds nuw %"class.__gnu_cxx::__normal_iterator.1057", ptr %4, i32 0, i32 0
  store ptr %0, ptr %21, align 8
  %22 = getelementptr inbounds nuw %"class.__gnu_cxx::__normal_iterator.1057", ptr %5, i32 0, i32 0
  store ptr %1, ptr %22, align 8
  %23 = getelementptr inbounds nuw %"struct.__gnu_cxx::__ops::_Iter_comp_iter.1161", ptr %6, i32 0, i32 0
  store ptr %2, ptr %23, align 8
  %24 = call noundef i64 @_ZN9__gnu_cxxmiIPN12_GLOBAL__N_13JBTINSt7__cxx1112basic_stringIcSt11char_traitsIcESaIcEEEEESt6vectorIS9_SaIS9_EEEENS_17__normal_iteratorIT_T0_E15difference_typeERKSH_SK_(ptr noundef nonnull align 8 dereferenceable(8) %5, ptr noundef nonnull align 8 dereferenceable(8) %4) #3
  %25 = icmp slt i64 %24, 15
  br i1 %25, label %26, label %33

26:                                               ; preds = %3
  call void @llvm.memcpy.p0.p0.i64(ptr align 8 %7, ptr align 8 %4, i64 8, i1 false), !tbaa.struct !1755
  call void @llvm.memcpy.p0.p0.i64(ptr align 8 %8, ptr align 8 %5, i64 8, i1 false), !tbaa.struct !1755
  call void @llvm.memcpy.p0.p0.i64(ptr align 8 %9, ptr align 8 %6, i64 8, i1 false), !tbaa.struct !1815
  %27 = getelementptr inbounds nuw %"class.__gnu_cxx::__normal_iterator.1057", ptr %7, i32 0, i32 0
  %28 = load ptr, ptr %27, align 8
  %29 = getelementptr inbounds nuw %"class.__gnu_cxx::__normal_iterator.1057", ptr %8, i32 0, i32 0
  %30 = load ptr, ptr %29, align 8
  %31 = getelementptr inbounds nuw %"struct.__gnu_cxx::__ops::_Iter_comp_iter.1161", ptr %9, i32 0, i32 0
  %32 = load ptr, ptr %31, align 8
  call void @_ZSt16__insertion_sortIN9__gnu_cxx17__normal_iteratorIPN12_GLOBAL__N_13JBTINSt7__cxx1112basic_stringIcSt11char_traitsIcESaIcEEEEESt6vectorISA_SaISA_EEEENS0_5__ops15_Iter_comp_iterIPFbRKSA_SJ_EEEEvT_SN_T0_(ptr %28, ptr %30, ptr %32)
  br label %60

33:                                               ; preds = %3
  call void @llvm.lifetime.start.p0(i64 8, ptr %10) #3
  %34 = call noundef i64 @_ZN9__gnu_cxxmiIPN12_GLOBAL__N_13JBTINSt7__cxx1112basic_stringIcSt11char_traitsIcESaIcEEEEESt6vectorIS9_SaIS9_EEEENS_17__normal_iteratorIT_T0_E15difference_typeERKSH_SK_(ptr noundef nonnull align 8 dereferenceable(8) %5, ptr noundef nonnull align 8 dereferenceable(8) %4) #3
  %35 = sdiv i64 %34, 2
  %36 = call ptr @_ZNK9__gnu_cxx17__normal_iteratorIPN12_GLOBAL__N_13JBTINSt7__cxx1112basic_stringIcSt11char_traitsIcESaIcEEEEESt6vectorIS9_SaIS9_EEEplEl(ptr noundef nonnull align 8 dereferenceable(8) %4, i64 noundef %35) #3
  %37 = getelementptr inbounds nuw %"class.__gnu_cxx::__normal_iterator.1057", ptr %10, i32 0, i32 0
  store ptr %36, ptr %37, align 8
  call void @llvm.memcpy.p0.p0.i64(ptr align 8 %11, ptr align 8 %4, i64 8, i1 false), !tbaa.struct !1755
  call void @llvm.memcpy.p0.p0.i64(ptr align 8 %12, ptr align 8 %10, i64 8, i1 false), !tbaa.struct !1755
  call void @llvm.memcpy.p0.p0.i64(ptr align 8 %13, ptr align 8 %6, i64 8, i1 false), !tbaa.struct !1815
  %38 = getelementptr inbounds nuw %"class.__gnu_cxx::__normal_iterator.1057", ptr %11, i32 0, i32 0
  %39 = load ptr, ptr %38, align 8
  %40 = getelementptr inbounds nuw %"class.__gnu_cxx::__normal_iterator.1057", ptr %12, i32 0, i32 0
  %41 = load ptr, ptr %40, align 8
  %42 = getelementptr inbounds nuw %"struct.__gnu_cxx::__ops::_Iter_comp_iter.1161", ptr %13, i32 0, i32 0
  %43 = load ptr, ptr %42, align 8
  call void @_ZSt21__inplace_stable_sortIN9__gnu_cxx17__normal_iteratorIPN12_GLOBAL__N_13JBTINSt7__cxx1112basic_stringIcSt11char_traitsIcESaIcEEEEESt6vectorISA_SaISA_EEEENS0_5__ops15_Iter_comp_iterIPFbRKSA_SJ_EEEEvT_SN_T0_(ptr %39, ptr %41, ptr %43)
  call void @llvm.memcpy.p0.p0.i64(ptr align 8 %14, ptr align 8 %10, i64 8, i1 false), !tbaa.struct !1755
  call void @llvm.memcpy.p0.p0.i64(ptr align 8 %15, ptr align 8 %5, i64 8, i1 false), !tbaa.struct !1755
  call void @llvm.memcpy.p0.p0.i64(ptr align 8 %16, ptr align 8 %6, i64 8, i1 false), !tbaa.struct !1815
  %44 = getelementptr inbounds nuw %"class.__gnu_cxx::__normal_iterator.1057", ptr %14, i32 0, i32 0
  %45 = load ptr, ptr %44, align 8
  %46 = getelementptr inbounds nuw %"class.__gnu_cxx::__normal_iterator.1057", ptr %15, i32 0, i32 0
  %47 = load ptr, ptr %46, align 8
  %48 = getelementptr inbounds nuw %"struct.__gnu_cxx::__ops::_Iter_comp_iter.1161", ptr %16, i32 0, i32 0
  %49 = load ptr, ptr %48, align 8
  call void @_ZSt21__inplace_stable_sortIN9__gnu_cxx17__normal_iteratorIPN12_GLOBAL__N_13JBTINSt7__cxx1112basic_stringIcSt11char_traitsIcESaIcEEEEESt6vectorISA_SaISA_EEEENS0_5__ops15_Iter_comp_iterIPFbRKSA_SJ_EEEEvT_SN_T0_(ptr %45, ptr %47, ptr %49)
  call void @llvm.memcpy.p0.p0.i64(ptr align 8 %17, ptr align 8 %4, i64 8, i1 false), !tbaa.struct !1755
  call void @llvm.memcpy.p0.p0.i64(ptr align 8 %18, ptr align 8 %10, i64 8, i1 false), !tbaa.struct !1755
  call void @llvm.memcpy.p0.p0.i64(ptr align 8 %19, ptr align 8 %5, i64 8, i1 false), !tbaa.struct !1755
  %50 = call noundef i64 @_ZN9__gnu_cxxmiIPN12_GLOBAL__N_13JBTINSt7__cxx1112basic_stringIcSt11char_traitsIcESaIcEEEEESt6vectorIS9_SaIS9_EEEENS_17__normal_iteratorIT_T0_E15difference_typeERKSH_SK_(ptr noundef nonnull align 8 dereferenceable(8) %10, ptr noundef nonnull align 8 dereferenceable(8) %4) #3
  %51 = call noundef i64 @_ZN9__gnu_cxxmiIPN12_GLOBAL__N_13JBTINSt7__cxx1112basic_stringIcSt11char_traitsIcESaIcEEEEESt6vectorIS9_SaIS9_EEEENS_17__normal_iteratorIT_T0_E15difference_typeERKSH_SK_(ptr noundef nonnull align 8 dereferenceable(8) %5, ptr noundef nonnull align 8 dereferenceable(8) %10) #3
  call void @llvm.memcpy.p0.p0.i64(ptr align 8 %20, ptr align 8 %6, i64 8, i1 false), !tbaa.struct !1815
  %52 = getelementptr inbounds nuw %"class.__gnu_cxx::__normal_iterator.1057", ptr %17, i32 0, i32 0
  %53 = load ptr, ptr %52, align 8
  %54 = getelementptr inbounds nuw %"class.__gnu_cxx::__normal_iterator.1057", ptr %18, i32 0, i32 0
  %55 = load ptr, ptr %54, align 8
  %56 = getelementptr inbounds nuw %"class.__gnu_cxx::__normal_iterator.1057", ptr %19, i32 0, i32 0
  %57 = load ptr, ptr %56, align 8
  %58 = getelementptr inbounds nuw %"struct.__gnu_cxx::__ops::_Iter_comp_iter.1161", ptr %20, i32 0, i32 0
  %59 = load ptr, ptr %58, align 8
  call void @_ZSt22__merge_without_bufferIN9__gnu_cxx17__normal_iteratorIPN12_GLOBAL__N_13JBTINSt7__cxx1112basic_stringIcSt11char_traitsIcESaIcEEEEESt6vectorISA_SaISA_EEEElNS0_5__ops15_Iter_comp_iterIPFbRKSA_SJ_EEEEvT_SN_SN_T0_SO_T1_(ptr %53, ptr %55, ptr %57, i64 noundef %50, i64 noundef %51, ptr %59)
  call void @llvm.lifetime.end.p0(i64 8, ptr %10) #3
  br label %60

60:                                               ; preds = %33, %26
  ret void
}