; Function Attrs: mustprogress uwtable
define internal fastcc void @_ZSt21__inplace_stable_sortIN9__gnu_cxx17__normal_iteratorIPN12_GLOBAL__N_13JBTINSt7__cxx1112basic_stringIcSt11char_traitsIcESaIcEEEEESt6vectorISA_SaISA_EEEENS0_5__ops15_Iter_comp_iterIPFbRKSA_SJ_EEEEvT_SN_T0_(ptr %0, ptr %1, ptr %2) unnamed_addr #5 {
  %4 = ptrtoint ptr %1 to i64
  %5 = ptrtoint ptr %0 to i64
  %6 = sub i64 %4, %5
  %7 = icmp slt i64 %6, 600
  br i1 %7, label %common.ret, label %8

common.ret:                                       ; preds = %3
  tail call fastcc void @_ZSt16__insertion_sortIN9__gnu_cxx17__normal_iteratorIPN12_GLOBAL__N_13JBTINSt7__cxx1112basic_stringIcSt11char_traitsIcESaIcEEEEESt6vectorISA_SaISA_EEEENS0_5__ops15_Iter_comp_iterIPFbRKSA_SJ_EEEEvT_SN_T0_(ptr %0, ptr %1, ptr %2)
  br label %common.ret24

common.ret24:                                     ; preds = %8, %common.ret
  ret void

8:                                                ; preds = %3
  %9 = udiv exact i64 %6, 40
  %10 = lshr i64 %9, 1
  %11 = getelementptr inbounds nuw %"class.(anonymous namespace)::JBT", ptr %0, i64 %10
  tail call fastcc void @_ZSt21__inplace_stable_sortIN9__gnu_cxx17__normal_iteratorIPN12_GLOBAL__N_13JBTINSt7__cxx1112basic_stringIcSt11char_traitsIcESaIcEEEEESt6vectorISA_SaISA_EEEENS0_5__ops15_Iter_comp_iterIPFbRKSA_SJ_EEEEvT_SN_T0_(ptr %0, ptr %11, ptr %2)
  tail call fastcc void @_ZSt21__inplace_stable_sortIN9__gnu_cxx17__normal_iteratorIPN12_GLOBAL__N_13JBTINSt7__cxx1112basic_stringIcSt11char_traitsIcESaIcEEEEESt6vectorISA_SaISA_EEEENS0_5__ops15_Iter_comp_iterIPFbRKSA_SJ_EEEEvT_SN_T0_(ptr %11, ptr %1, ptr %2)
  %12 = ptrtoint ptr %11 to i64
  %13 = sub i64 %4, %12
  %14 = sdiv exact i64 %13, 40
  tail call fastcc void @_ZSt22__merge_without_bufferIN9__gnu_cxx17__normal_iteratorIPN12_GLOBAL__N_13JBTINSt7__cxx1112basic_stringIcSt11char_traitsIcESaIcEEEEESt6vectorISA_SaISA_EEEElNS0_5__ops15_Iter_comp_iterIPFbRKSA_SJ_EEEEvT_SN_SN_T0_SO_T1_(ptr %0, ptr %11, ptr %1, i64 noundef %10, i64 noundef %14, ptr %2)
  br label %common.ret24
}